; Function Attrs: mustprogress nofree nounwind uwtable
define noundef i32 @_ZN3url9ParsePortEPKcRKNS_9ComponentE(ptr noundef readonly captures(none) %0, ptr noundef nonnull readonly align 4 captures(none) dereferenceable(8) %1) local_unnamed_addr #8 {
  %3 = alloca [6 x i8], align 1
  %4 = getelementptr inbounds nuw i8, ptr %1, i64 4
  %.val2 = load i32, ptr %4, align 4, !tbaa !8
  %5 = icmp sgt i32 %.val2, 0
  br i1 %5, label %.preheader.preheader.i, label %_ZN3url12_GLOBAL__N_111DoParsePortIcEEiPKT_RKNS_9ComponentE.exit

.preheader.preheader.i:                           ; preds = %2
  %.val = load i32, ptr %1, align 4
  %6 = sext i32 %.val to i64
  %wide.trip.count.i = zext nneg i32 %.val2 to i64
  br label %.preheader.i

.preheader.i:                                     ; preds = %10, %.preheader.preheader.i
  %indvars.iv15.i = phi i32 [ %.val2, %.preheader.preheader.i ], [ %indvars.iv.next16.i, %10 ]
  %indvars.iv.i = phi i64 [ 0, %.preheader.preheader.i ], [ %indvars.iv.next.i, %10 ]
  %7 = add nsw i64 %indvars.iv.i, %6
  %8 = getelementptr inbounds i8, ptr %0, i64 %7
  %9 = load i8, ptr %8, align 1, !tbaa !21
  %.not.i = icmp eq i8 %9, 48
  br i1 %.not.i, label %10, label %11

10:                                               ; preds = %.preheader.i
  %indvars.iv.next.i = add nuw nsw i64 %indvars.iv.i, 1
  %exitcond.not.i = icmp eq i64 %indvars.iv.next.i, %wide.trip.count.i
  %indvars.iv.next16.i = add i32 %indvars.iv15.i, -1
  br i1 %exitcond.not.i, label %_ZN3url12_GLOBAL__N_111DoParsePortIcEEiPKT_RKNS_9ComponentE.exit, label %.preheader.i, !llvm.loop !41

11:                                               ; preds = %.preheader.i
  %12 = trunc nuw nsw i64 %indvars.iv.i to i32
  %13 = sub nsw i32 %.val2, %12
  %14 = icmp sgt i32 %13, 5
  br i1 %14, label %_ZN3url12_GLOBAL__N_111DoParsePortIcEEiPKT_RKNS_9ComponentE.exit, label %15

15:                                               ; preds = %11
  call void @llvm.lifetime.start.p0(i64 6, ptr nonnull %3) #15
  %.not297.i = icmp sgt i32 %13, 0
  br i1 %.not297.i, label %.lr.ph.preheader.i, label %.critedge30.i

.lr.ph.preheader.i:                               ; preds = %15
  %sext.i = shl i64 %7, 32
  %16 = ashr exact i64 %sext.i, 32
  %wide.trip.count18.i = zext i32 %indvars.iv15.i to i64
  %invariant.gep.i = getelementptr i8, ptr %0, i64 %16
  br label %.lr.ph.i

.lr.ph.i:                                         ; preds = %21, %.lr.ph.preheader.i
  %indvars.iv12.i = phi i64 [ 0, %.lr.ph.preheader.i ], [ %indvars.iv.next13.i, %21 ]
  %gep.i = getelementptr i8, ptr %invariant.gep.i, i64 %indvars.iv12.i
  %17 = load i8, ptr %gep.i, align 1, !tbaa !21
  %18 = sext i8 %17 to i16
  %19 = add nsw i16 %18, -48
  %20 = icmp ult i16 %19, 10
  br i1 %20, label %21, label %.critedge.i

21:                                               ; preds = %.lr.ph.i
  %22 = getelementptr inbounds nuw [6 x i8], ptr %3, i64 0, i64 %indvars.iv12.i
  store i8 %17, ptr %22, align 1, !tbaa !21
  %indvars.iv.next13.i = add nuw nsw i64 %indvars.iv12.i, 1
  %exitcond19.not.i = icmp eq i64 %indvars.iv.next13.i, %wide.trip.count18.i
  br i1 %exitcond19.not.i, label %.critedge30.i, label %.lr.ph.i, !llvm.loop !42

.critedge30.i:                                    ; preds = %21, %15
  %23 = sext i32 %13 to i64
  %24 = getelementptr inbounds [6 x i8], ptr %3, i64 0, i64 %23
  store i8 0, ptr %24, align 1, !tbaa !21
  %25 = call i64 @strtol(ptr noundef nonnull captures(none) %3, ptr noundef null, i32 noundef 10) #15
  %26 = trunc i64 %25 to i32
  %27 = icmp sgt i32 %26, 65535
  %..i = select i1 %27, i32 -2, i32 %26
  br label %.critedge.i

.critedge.i:                                      ; preds = %.lr.ph.i, %.critedge30.i
  %.5.i = phi i32 [ %..i, %.critedge30.i ], [ -2, %.lr.ph.i ]
  call void @llvm.lifetime.end.p0(i64 6, ptr nonnull %3) #15
  br label %_ZN3url12_GLOBAL__N_111DoParsePortIcEEiPKT_RKNS_9ComponentE.exit

_ZN3url12_GLOBAL__N_111DoParsePortIcEEiPKT_RKNS_9ComponentE.exit: ; preds = %10, %2, %11, %.critedge.i
  %.0.i = phi i32 [ -1, %2 ], [ %.5.i, %.critedge.i ], [ -2, %11 ], [ 0, %10 ]
  ret i32 %.0.i
}